; Function Attrs: mustprogress nofree norecurse nosync nounwind willreturn memory(argmem: read) uwtable
define hidden i64 @zip_entry_size(ptr noundef readonly %zip) local_unnamed_addr #8 {
entry:
  %tobool.not = icmp eq ptr %zip, null
  br i1 %tobool.not, label %cond.end, label %cond.true

cond.true:                                        ; preds = %entry
  %uncomp_size = getelementptr inbounds nuw i8, ptr %zip, i64 136
  %0 = load i64, ptr %uncomp_size, align 8
  br label %cond.end

cond.end:                                         ; preds = %entry, %cond.true
  %cond = phi i64 [ %0, %cond.true ], [ 0, %entry ]
  ret i64 %cond
}